target datalayout = "e-m:e-p270:32:32-p271:32:32-p272:64:64-i64:64-i128:128-f80:128-n8:16:32:64-S128"
target triple = "x86_64-pc-linux-gnu"

@.str.2 = private unnamed_addr constant [3 x i8] c"%d\00", align 1
@.str.3 = private unnamed_addr constant [2 x i8] c"\0A\00", align 1

; Function Attrs: nounwind uwtable
define void @Abc_SuppPrintMask(i64 noundef %0, i32 noundef %1) #0 {
  %3 = alloca i64, align 8
  %4 = alloca i32, align 4
  %5 = alloca i32, align 4
  store i64 %0, ptr %3, align 8, !tbaa !17
  store i32 %1, ptr %4, align 4, !tbaa !3
  call void @llvm.lifetime.start.p0(i64 4, ptr %5) #13
  store i32 0, ptr %5, align 4, !tbaa !3
  br label %6

6:                                                ; preds = %18, %2
  %7 = load i32, ptr %5, align 4, !tbaa !3
  %8 = load i32, ptr %4, align 4, !tbaa !3
  %9 = icmp slt i32 %7, %8
  br i1 %9, label %10, label %21

10:                                               ; preds = %6
  %11 = load i64, ptr %3, align 8, !tbaa !17
  %12 = load i32, ptr %5, align 4, !tbaa !3
  %13 = zext i32 %12 to i64
  %14 = lshr i64 %11, %13
  %15 = and i64 %14, 1
  %16 = trunc i64 %15 to i32
  %17 = call i32 (ptr, ...) @printf(ptr noundef @.str.2, i32 noundef %16)
  br label %18

18:                                               ; preds = %10
  %19 = load i32, ptr %5, align 4, !tbaa !3
  %20 = add nsw i32 %19, 1
  store i32 %20, ptr %5, align 4, !tbaa !3
  br label %6, !llvm.loop !31

21:                                               ; preds = %6
  %22 = call i32 (ptr, ...) @printf(ptr noundef @.str.3)
  call void @llvm.lifetime.end.p0(i64 4, ptr %5) #13
  ret void
}